; Function Attrs: mustprogress uwtable
define hidden void @_ZN5ceres8internal33GradientCheckingIterationCallback24SetGradientErrorDetectedERNSt7__cxx1112basic_stringIcSt11char_traitsIcESaIcEEE(ptr noundef nonnull align 8 dereferenceable(88) %0, ptr noundef nonnull align 8 dereferenceable(32) %1) local_unnamed_addr #2 align 2 personality ptr @__gxx_personality_v0 {
  %3 = alloca %"class.std::__cxx11::basic_string", align 8
  %4 = getelementptr inbounds i8, ptr %0, i64 48
  %5 = tail call noundef i32 @pthread_mutex_lock(ptr noundef nonnull %4) #17
  %.not.i.i = icmp eq i32 %5, 0
  br i1 %.not.i.i, label %_ZNSt10lock_guardISt5mutexEC2ERS0_.exit, label %6

6:                                                ; preds = %2
  tail call void @_ZSt20__throw_system_errori(i32 noundef %5) #18
  unreachable

_ZNSt10lock_guardISt5mutexEC2ERS0_.exit:          ; preds = %2
  %7 = getelementptr inbounds i8, ptr %0, i64 8
  store i8 1, ptr %7, align 8
  invoke void @_ZStplIcSt11char_traitsIcESaIcEENSt7__cxx1112basic_stringIT_T0_T1_EEPKS5_RKS8_(ptr dead_on_unwind nonnull writable sret(%"class.std::__cxx11::basic_string") align 8 %3, ptr noundef nonnull @.str.4, ptr noundef nonnull align 8 dereferenceable(32) %1)
          to label %8 unwind label %13

8:                                                ; preds = %_ZNSt10lock_guardISt5mutexEC2ERS0_.exit
  %9 = getelementptr inbounds i8, ptr %0, i64 16
  %10 = invoke noundef nonnull align 8 dereferenceable(32) ptr @_ZNSt7__cxx1112basic_stringIcSt11char_traitsIcESaIcEEpLERKS4_(ptr noundef nonnull align 8 dereferenceable(32) %9, ptr noundef nonnull align 8 dereferenceable(32) %3)
          to label %11 unwind label %15

11:                                               ; preds = %8
  call void @_ZNSt7__cxx1112basic_stringIcSt11char_traitsIcESaIcEED1Ev(ptr noundef nonnull align 8 dereferenceable(32) %3) #17
  %12 = call noundef i32 @pthread_mutex_unlock(ptr noundef nonnull %4) #17
  ret void

13:                                               ; preds = %_ZNSt10lock_guardISt5mutexEC2ERS0_.exit
  %14 = landingpad { ptr, i32 }
          cleanup
  br label %17

15:                                               ; preds = %8
  %16 = landingpad { ptr, i32 }
          cleanup
  call void @_ZNSt7__cxx1112basic_stringIcSt11char_traitsIcESaIcEED1Ev(ptr noundef nonnull align 8 dereferenceable(32) %3) #17
  br label %17

17:                                               ; preds = %15, %13
  %.pn = phi { ptr, i32 } [ %16, %15 ], [ %14, %13 ]
  %18 = call noundef i32 @pthread_mutex_unlock(ptr noundef nonnull %4) #17
  resume { ptr, i32 } %.pn
}